target datalayout = "e-m:e-p270:32:32-p271:32:32-p272:64:64-i64:64-i128:128-f80:128-n8:16:32:64-S128"
target triple = "x86_64-pc-linux-gnu"

%struct.GetByteContext = type { ptr, ptr, ptr }

; Function Attrs: alwaysinline nounwind uwtable
define internal i32 @bytestream_get_byte(ptr noundef %0) #5 {
  %2 = alloca ptr, align 8
  store ptr %0, ptr %2, align 8, !tbaa !62
  %3 = load ptr, ptr %2, align 8, !tbaa !62
  %4 = load ptr, ptr %3, align 8, !tbaa !43
  %5 = getelementptr inbounds i8, ptr %4, i64 1
  store ptr %5, ptr %3, align 8, !tbaa !43
  %6 = load ptr, ptr %2, align 8, !tbaa !62
  %7 = load ptr, ptr %6, align 8, !tbaa !43
  %8 = getelementptr inbounds i8, ptr %7, i64 -1
  %9 = getelementptr inbounds i8, ptr %8, i64 0
  %10 = load i8, ptr %9, align 1, !tbaa !46
  %11 = zext i8 %10 to i32
  ret i32 %11
}

; Function Attrs: alwaysinline nounwind uwtable
define internal i32 @bytestream_get_le32(ptr noundef %0) #5 {
  %2 = alloca ptr, align 8
  store ptr %0, ptr %2, align 8, !tbaa !62
  %3 = load ptr, ptr %2, align 8, !tbaa !62
  %4 = load ptr, ptr %3, align 8, !tbaa !43
  %5 = getelementptr inbounds i8, ptr %4, i64 4
  store ptr %5, ptr %3, align 8, !tbaa !43
  %6 = load ptr, ptr %2, align 8, !tbaa !62
  %7 = load ptr, ptr %6, align 8, !tbaa !43
  %8 = getelementptr inbounds i8, ptr %7, i64 -4
  %9 = load i32, ptr %8, align 1, !tbaa !46
  ret i32 %9
}

; Function Attrs: alwaysinline nounwind uwtable
define internal i32 @bytestream2_get_byteu(ptr noundef %0) #5 {
  %2 = alloca ptr, align 8
  store ptr %0, ptr %2, align 8, !tbaa !56
  %3 = load ptr, ptr %2, align 8, !tbaa !56
  %4 = getelementptr inbounds nuw %struct.GetByteContext, ptr %3, i32 0, i32 0
  %5 = call i32 @bytestream_get_byte(ptr noundef %4)
  ret i32 %5
}

; Function Attrs: alwaysinline nounwind uwtable
define internal i32 @bytestream_get_le16(ptr noundef %0) #5 {
  %2 = alloca ptr, align 8
  store ptr %0, ptr %2, align 8, !tbaa !62
  %3 = load ptr, ptr %2, align 8, !tbaa !62
  %4 = load ptr, ptr %3, align 8, !tbaa !43
  %5 = getelementptr inbounds i8, ptr %4, i64 2
  store ptr %5, ptr %3, align 8, !tbaa !43
  %6 = load ptr, ptr %2, align 8, !tbaa !62
  %7 = load ptr, ptr %6, align 8, !tbaa !43
  %8 = getelementptr inbounds i8, ptr %7, i64 -2
  %9 = load i16, ptr %8, align 1, !tbaa !46
  %10 = zext i16 %9 to i32
  ret i32 %10
}

; Function Attrs: alwaysinline nounwind uwtable
define internal i32 @bytestream2_get_le32u(ptr noundef %0) #5 {
  %2 = alloca ptr, align 8
  store ptr %0, ptr %2, align 8, !tbaa !56
  %3 = load ptr, ptr %2, align 8, !tbaa !56
  %4 = getelementptr inbounds nuw %struct.GetByteContext, ptr %3, i32 0, i32 0
  %5 = call i32 @bytestream_get_le32(ptr noundef %4)
  ret i32 %5
}

; Function Attrs: alwaysinline nounwind uwtable
define internal i32 @bytestream2_get_byte(ptr noundef %0) #5 {
  %2 = alloca i32, align 4
  %3 = alloca ptr, align 8
  store ptr %0, ptr %3, align 8, !tbaa !56
  %4 = load ptr, ptr %3, align 8, !tbaa !56
  %5 = getelementptr inbounds nuw %struct.GetByteContext, ptr %4, i32 0, i32 1
  %6 = load ptr, ptr %5, align 8, !tbaa !61
  %7 = load ptr, ptr %3, align 8, !tbaa !56
  %8 = getelementptr inbounds nuw %struct.GetByteContext, ptr %7, i32 0, i32 0
  %9 = load ptr, ptr %8, align 8, !tbaa !58
  %10 = ptrtoint ptr %6 to i64
  %11 = ptrtoint ptr %9 to i64
  %12 = sub i64 %10, %11
  %13 = icmp slt i64 %12, 1
  br i1 %13, label %14, label %20

14:                                               ; preds = %1
  %15 = load ptr, ptr %3, align 8, !tbaa !56
  %16 = getelementptr inbounds nuw %struct.GetByteContext, ptr %15, i32 0, i32 1
  %17 = load ptr, ptr %16, align 8, !tbaa !61
  %18 = load ptr, ptr %3, align 8, !tbaa !56
  %19 = getelementptr inbounds nuw %struct.GetByteContext, ptr %18, i32 0, i32 0
  store ptr %17, ptr %19, align 8, !tbaa !58
  store i32 0, ptr %2, align 4
  br label %23

20:                                               ; preds = %1
  %21 = load ptr, ptr %3, align 8, !tbaa !56
  %22 = call i32 @bytestream2_get_byteu(ptr noundef %21)
  store i32 %22, ptr %2, align 4
  br label %23

23:                                               ; preds = %20, %14
  %24 = load i32, ptr %2, align 4
  ret i32 %24
}

; Function Attrs: alwaysinline nounwind uwtable
define internal i32 @bytestream2_get_le16(ptr noundef %0) #5 {
  %2 = alloca i32, align 4
  %3 = alloca ptr, align 8
  store ptr %0, ptr %3, align 8, !tbaa !56
  %4 = load ptr, ptr %3, align 8, !tbaa !56
  %5 = getelementptr inbounds nuw %struct.GetByteContext, ptr %4, i32 0, i32 1
  %6 = load ptr, ptr %5, align 8, !tbaa !61
  %7 = load ptr, ptr %3, align 8, !tbaa !56
  %8 = getelementptr inbounds nuw %struct.GetByteContext, ptr %7, i32 0, i32 0
  %9 = load ptr, ptr %8, align 8, !tbaa !58
  %10 = ptrtoint ptr %6 to i64
  %11 = ptrtoint ptr %9 to i64
  %12 = sub i64 %10, %11
  %13 = icmp slt i64 %12, 2
  br i1 %13, label %14, label %20

14:                                               ; preds = %1
  %15 = load ptr, ptr %3, align 8, !tbaa !56
  %16 = getelementptr inbounds nuw %struct.GetByteContext, ptr %15, i32 0, i32 1
  %17 = load ptr, ptr %16, align 8, !tbaa !61
  %18 = load ptr, ptr %3, align 8, !tbaa !56
  %19 = getelementptr inbounds nuw %struct.GetByteContext, ptr %18, i32 0, i32 0
  store ptr %17, ptr %19, align 8, !tbaa !58
  store i32 0, ptr %2, align 4
  br label %23

20:                                               ; preds = %1
  %21 = load ptr, ptr %3, align 8, !tbaa !56
  %22 = call i32 @bytestream2_get_le16u(ptr noundef %21)
  store i32 %22, ptr %2, align 4
  br label %23

23:                                               ; preds = %20, %14
  %24 = load i32, ptr %2, align 4
  ret i32 %24
}

; Function Attrs: alwaysinline nounwind uwtable
define internal i32 @bytestream2_get_le16u(ptr noundef %0) #5 {
  %2 = alloca ptr, align 8
  store ptr %0, ptr %2, align 8, !tbaa !56
  %3 = load ptr, ptr %2, align 8, !tbaa !56
  %4 = getelementptr inbounds nuw %struct.GetByteContext, ptr %3, i32 0, i32 0
  %5 = call i32 @bytestream_get_le16(ptr noundef %4)
  ret i32 %5
}

; Function Attrs: alwaysinline nounwind uwtable
define internal i32 @bytestream2_get_bytes_left(ptr noundef %0) #5 {
  %2 = alloca ptr, align 8
  store ptr %0, ptr %2, align 8, !tbaa !56
  %3 = load ptr, ptr %2, align 8, !tbaa !56
  %4 = getelementptr inbounds nuw %struct.GetByteContext, ptr %3, i32 0, i32 1
  %5 = load ptr, ptr %4, align 8, !tbaa !61
  %6 = load ptr, ptr %2, align 8, !tbaa !56
  %7 = getelementptr inbounds nuw %struct.GetByteContext, ptr %6, i32 0, i32 0
  %8 = load ptr, ptr %7, align 8, !tbaa !58
  %9 = ptrtoint ptr %5 to i64
  %10 = ptrtoint ptr %8 to i64
  %11 = sub i64 %9, %10
  %12 = trunc i64 %11 to i32
  ret i32 %12
}

; Function Attrs: alwaysinline nounwind uwtable
define internal i32 @bytestream2_get_le32(ptr noundef %0) #5 {
  %2 = alloca i32, align 4
  %3 = alloca ptr, align 8
  store ptr %0, ptr %3, align 8, !tbaa !56
  %4 = load ptr, ptr %3, align 8, !tbaa !56
  %5 = getelementptr inbounds nuw %struct.GetByteContext, ptr %4, i32 0, i32 1
  %6 = load ptr, ptr %5, align 8, !tbaa !61
  %7 = load ptr, ptr %3, align 8, !tbaa !56
  %8 = getelementptr inbounds nuw %struct.GetByteContext, ptr %7, i32 0, i32 0
  %9 = load ptr, ptr %8, align 8, !tbaa !58
  %10 = ptrtoint ptr %6 to i64
  %11 = ptrtoint ptr %9 to i64
  %12 = sub i64 %10, %11
  %13 = icmp slt i64 %12, 4
  br i1 %13, label %14, label %20

14:                                               ; preds = %1
  %15 = load ptr, ptr %3, align 8, !tbaa !56
  %16 = getelementptr inbounds nuw %struct.GetByteContext, ptr %15, i32 0, i32 1
  %17 = load ptr, ptr %16, align 8, !tbaa !61
  %18 = load ptr, ptr %3, align 8, !tbaa !56
  %19 = getelementptr inbounds nuw %struct.GetByteContext, ptr %18, i32 0, i32 0
  store ptr %17, ptr %19, align 8, !tbaa !58
  store i32 0, ptr %2, align 4
  br label %23

20:                                               ; preds = %1
  %21 = load ptr, ptr %3, align 8, !tbaa !56
  %22 = call i32 @bytestream2_get_le32u(ptr noundef %21)
  store i32 %22, ptr %2, align 4
  br label %23

23:                                               ; preds = %20, %14
  %24 = load i32, ptr %2, align 4
  ret i32 %24
}

; Function Attrs: nounwind uwtable
define internal i32 @decode_tsw1(ptr noundef %0, ptr noundef %1, i32 noundef %2, i32 noundef %3) #1 {
  %5 = alloca i32, align 4
  %6 = alloca ptr, align 8
  %7 = alloca ptr, align 8
  %8 = alloca i32, align 4
  %9 = alloca i32, align 4
  %10 = alloca ptr, align 8
  %11 = alloca ptr, align 8
  %12 = alloca i32, align 4
  %13 = alloca i32, align 4
  %14 = alloca i32, align 4
  %15 = alloca i32, align 4
  %16 = alloca i32, align 4
  %17 = alloca i32, align 4
  %18 = alloca i32, align 4
  store ptr %0, ptr %6, align 8, !tbaa !56
  store ptr %1, ptr %7, align 8, !tbaa !43
  store i32 %2, ptr %8, align 4, !tbaa !47
  store i32 %3, ptr %9, align 4, !tbaa !47
  call void @llvm.lifetime.start.p0(i64 8, ptr %10) #8
  %19 = load ptr, ptr %7, align 8, !tbaa !43
  store ptr %19, ptr %10, align 8, !tbaa !43
  call void @llvm.lifetime.start.p0(i64 8, ptr %11) #8
  %20 = load ptr, ptr %7, align 8, !tbaa !43
  %21 = load i32, ptr %8, align 4, !tbaa !47
  %22 = load i32, ptr %9, align 4, !tbaa !47
  %23 = mul nsw i32 %21, %22
  %24 = sext i32 %23 to i64
  %25 = getelementptr inbounds i8, ptr %20, i64 %24
  store ptr %25, ptr %11, align 8, !tbaa !43
  call void @llvm.lifetime.start.p0(i64 4, ptr %12) #8
  store i32 65536, ptr %12, align 4, !tbaa !47
  call void @llvm.lifetime.start.p0(i64 4, ptr %13) #8
  store i32 0, ptr %13, align 4, !tbaa !47
  call void @llvm.lifetime.start.p0(i64 4, ptr %14) #8
  call void @llvm.lifetime.start.p0(i64 4, ptr %15) #8
  call void @llvm.lifetime.start.p0(i64 4, ptr %16) #8
  call void @llvm.lifetime.start.p0(i64 4, ptr %17) #8
  %26 = load ptr, ptr %6, align 8, !tbaa !56
  %27 = call i32 @bytestream2_get_le32(ptr noundef %26)
  store i32 %27, ptr %16, align 4, !tbaa !47
  %28 = load ptr, ptr %6, align 8, !tbaa !56
  %29 = call i32 @bytestream2_get_le32(ptr noundef %28)
  store i32 %29, ptr %17, align 4, !tbaa !47
  %30 = load i32, ptr %16, align 4, !tbaa !47
  %31 = icmp eq i32 %30, 0
  br i1 %31, label %32, label %42

32:                                               ; preds = %4
  %33 = load i32, ptr %17, align 4, !tbaa !47
  %34 = zext i32 %33 to i64
  %35 = load ptr, ptr %11, align 8, !tbaa !43
  %36 = load ptr, ptr %7, align 8, !tbaa !43
  %37 = ptrtoint ptr %35 to i64
  %38 = ptrtoint ptr %36 to i64
  %39 = sub i64 %37, %38
  %40 = icmp eq i64 %34, %39
  br i1 %40, label %41, label %42

41:                                               ; preds = %32
  store i32 0, ptr %5, align 4
  store i32 1, ptr %18, align 4
  br label %136

42:                                               ; preds = %32, %4
  %43 = load ptr, ptr %11, align 8, !tbaa !43
  %44 = load ptr, ptr %7, align 8, !tbaa !43
  %45 = ptrtoint ptr %43 to i64
  %46 = ptrtoint ptr %44 to i64
  %47 = sub i64 %45, %46
  %48 = load i32, ptr %17, align 4, !tbaa !47
  %49 = zext i32 %48 to i64
  %50 = icmp sle i64 %47, %49
  br i1 %50, label %51, label %52

51:                                               ; preds = %42
  store i32 -1094995529, ptr %5, align 4
  store i32 1, ptr %18, align 4
  br label %136

52:                                               ; preds = %42
  %53 = load i32, ptr %17, align 4, !tbaa !47
  %54 = load ptr, ptr %7, align 8, !tbaa !43
  %55 = zext i32 %53 to i64
  %56 = getelementptr inbounds nuw i8, ptr %54, i64 %55
  store ptr %56, ptr %7, align 8, !tbaa !43
  br label %57

57:                                               ; preds = %132, %52
  %58 = load i32, ptr %16, align 4, !tbaa !47
  %59 = add i32 %58, -1
  store i32 %59, ptr %16, align 4, !tbaa !47
  %60 = icmp ne i32 %58, 0
  br i1 %60, label %61, label %135

61:                                               ; preds = %57
  %62 = load ptr, ptr %6, align 8, !tbaa !56
  %63 = call i32 @bytestream2_get_bytes_left(ptr noundef %62)
  %64 = icmp slt i32 %63, 2
  br i1 %64, label %65, label %66

65:                                               ; preds = %61
  store i32 -1094995529, ptr %5, align 4
  store i32 1, ptr %18, align 4
  br label %136

66:                                               ; preds = %61
  %67 = load i32, ptr %12, align 4, !tbaa !47
  %68 = icmp eq i32 %67, 65536
  br i1 %68, label %69, label %72

69:                                               ; preds = %66
  %70 = load ptr, ptr %6, align 8, !tbaa !56
  %71 = call i32 @bytestream2_get_le16u(ptr noundef %70)
  store i32 %71, ptr %13, align 4, !tbaa !47
  store i32 1, ptr %12, align 4, !tbaa !47
  br label %72

72:                                               ; preds = %69, %66
  %73 = load ptr, ptr %11, align 8, !tbaa !43
  %74 = load ptr, ptr %7, align 8, !tbaa !43
  %75 = ptrtoint ptr %73 to i64
  %76 = ptrtoint ptr %74 to i64
  %77 = sub i64 %75, %76
  %78 = icmp slt i64 %77, 2
  br i1 %78, label %79, label %80

79:                                               ; preds = %72
  store i32 -1094995529, ptr %5, align 4
  store i32 1, ptr %18, align 4
  br label %136

80:                                               ; preds = %72
  %81 = load i32, ptr %13, align 4, !tbaa !47
  %82 = load i32, ptr %12, align 4, !tbaa !47
  %83 = and i32 %81, %82
  %84 = icmp ne i32 %83, 0
  br i1 %84, label %85, label %121

85:                                               ; preds = %80
  %86 = load ptr, ptr %6, align 8, !tbaa !56
  %87 = call i32 @bytestream2_get_le16(ptr noundef %86)
  store i32 %87, ptr %14, align 4, !tbaa !47
  %88 = load i32, ptr %14, align 4, !tbaa !47
  %89 = and i32 %88, 8191
  %90 = shl i32 %89, 1
  store i32 %90, ptr %17, align 4, !tbaa !47
  %91 = load i32, ptr %14, align 4, !tbaa !47
  %92 = ashr i32 %91, 13
  %93 = add nsw i32 %92, 2
  %94 = shl i32 %93, 1
  store i32 %94, ptr %15, align 4, !tbaa !47
  %95 = load ptr, ptr %7, align 8, !tbaa !43
  %96 = load ptr, ptr %10, align 8, !tbaa !43
  %97 = ptrtoint ptr %95 to i64
  %98 = ptrtoint ptr %96 to i64
  %99 = sub i64 %97, %98
  %100 = load i32, ptr %17, align 4, !tbaa !47
  %101 = zext i32 %100 to i64
  %102 = icmp slt i64 %99, %101
  br i1 %102, label %112, label %103

103:                                              ; preds = %85
  %104 = load ptr, ptr %11, align 8, !tbaa !43
  %105 = load ptr, ptr %7, align 8, !tbaa !43
  %106 = ptrtoint ptr %104 to i64
  %107 = ptrtoint ptr %105 to i64
  %108 = sub i64 %106, %107
  %109 = load i32, ptr %15, align 4, !tbaa !47
  %110 = sext i32 %109 to i64
  %111 = icmp slt i64 %108, %110
  br i1 %111, label %112, label %113

112:                                              ; preds = %103, %85
  store i32 -1094995529, ptr %5, align 4
  store i32 1, ptr %18, align 4
  br label %136

113:                                              ; preds = %103
  %114 = load ptr, ptr %7, align 8, !tbaa !43
  %115 = load i32, ptr %17, align 4, !tbaa !47
  %116 = load i32, ptr %15, align 4, !tbaa !47
  call void @av_memcpy_backptr(ptr noundef %114, i32 noundef %115, i32 noundef %116)
  %117 = load i32, ptr %15, align 4, !tbaa !47
  %118 = load ptr, ptr %7, align 8, !tbaa !43
  %119 = sext i32 %117 to i64
  %120 = getelementptr inbounds i8, ptr %118, i64 %119
  store ptr %120, ptr %7, align 8, !tbaa !43
  br label %132

121:                                              ; preds = %80
  %122 = load ptr, ptr %6, align 8, !tbaa !56
  %123 = call i32 @bytestream2_get_byte(ptr noundef %122)
  %124 = trunc i32 %123 to i8
  %125 = load ptr, ptr %7, align 8, !tbaa !43
  %126 = getelementptr inbounds nuw i8, ptr %125, i32 1
  store ptr %126, ptr %7, align 8, !tbaa !43
  store i8 %124, ptr %125, align 1, !tbaa !46
  %127 = load ptr, ptr %6, align 8, !tbaa !56
  %128 = call i32 @bytestream2_get_byte(ptr noundef %127)
  %129 = trunc i32 %128 to i8
  %130 = load ptr, ptr %7, align 8, !tbaa !43
  %131 = getelementptr inbounds nuw i8, ptr %130, i32 1
  store ptr %131, ptr %7, align 8, !tbaa !43
  store i8 %129, ptr %130, align 1, !tbaa !46
  br label %132

132:                                              ; preds = %121, %113
  %133 = load i32, ptr %12, align 4, !tbaa !47
  %134 = shl i32 %133, 1
  store i32 %134, ptr %12, align 4, !tbaa !47
  br label %57, !llvm.loop !64

135:                                              ; preds = %57
  store i32 0, ptr %5, align 4
  store i32 1, ptr %18, align 4
  br label %136

136:                                              ; preds = %135, %112, %79, %65, %51, %41
  call void @llvm.lifetime.end.p0(i64 4, ptr %17) #8
  call void @llvm.lifetime.end.p0(i64 4, ptr %16) #8
  call void @llvm.lifetime.end.p0(i64 4, ptr %15) #8
  call void @llvm.lifetime.end.p0(i64 4, ptr %14) #8
  call void @llvm.lifetime.end.p0(i64 4, ptr %13) #8
  call void @llvm.lifetime.end.p0(i64 4, ptr %12) #8
  call void @llvm.lifetime.end.p0(i64 8, ptr %11) #8
  call void @llvm.lifetime.end.p0(i64 8, ptr %10) #8
  %137 = load i32, ptr %5, align 4
  ret i32 %137
}