; Function Attrs: nounwind uwtable
define internal range(i32 -1094995529, 1) i32 @decode_tsw1(ptr noundef captures(none) %0, ptr noundef %1, i32 noundef %2, i32 noundef %3) #1 {
  %5 = mul nsw i32 %3, %2
  %6 = sext i32 %5 to i64
  %7 = getelementptr inbounds i8, ptr %1, i64 %6
  %8 = getelementptr inbounds nuw i8, ptr %0, i64 8
  %9 = load ptr, ptr %8, align 8, !tbaa !41
  %10 = load ptr, ptr %0, align 8, !tbaa !38
  %11 = ptrtoint ptr %9 to i64
  %12 = ptrtoint ptr %10 to i64
  %13 = sub i64 %11, %12
  %14 = icmp slt i64 %13, 4
  br i1 %14, label %bytestream2_get_le32.exit55, label %15

15:                                               ; preds = %4
  %16 = getelementptr inbounds nuw i8, ptr %10, i64 4
  store ptr %16, ptr %0, align 8, !tbaa !42
  %17 = load i32, ptr %10, align 1, !tbaa !34
  %.pre = ptrtoint ptr %16 to i64
  br label %bytestream2_get_le32.exit55

bytestream2_get_le32.exit55:                      ; preds = %4, %15
  %.pre-phi = phi i64 [ %.pre, %15 ], [ %11, %4 ]
  %18 = phi ptr [ %16, %15 ], [ %9, %4 ]
  %.0.i54 = phi i32 [ %17, %15 ], [ 0, %4 ]
  %19 = sub i64 %11, %.pre-phi
  %20 = icmp slt i64 %19, 4
  br i1 %20, label %21, label %22

21:                                               ; preds = %bytestream2_get_le32.exit55
  store ptr %9, ptr %0, align 8, !tbaa !38
  br label %bytestream2_get_le32.exit

22:                                               ; preds = %bytestream2_get_le32.exit55
  %23 = getelementptr inbounds nuw i8, ptr %18, i64 4
  store ptr %23, ptr %0, align 8, !tbaa !42
  %24 = load i32, ptr %18, align 1, !tbaa !34
  %25 = zext i32 %24 to i64
  br label %bytestream2_get_le32.exit

bytestream2_get_le32.exit:                        ; preds = %21, %22
  %.0.i = phi i64 [ 0, %21 ], [ %25, %22 ]
  %26 = icmp eq i32 %.0.i54, 0
  %27 = icmp eq i64 %.0.i, %6
  %or.cond = select i1 %26, i1 %27, i1 false
  br i1 %or.cond, label %.loopexit, label %28

28:                                               ; preds = %bytestream2_get_le32.exit
  %29 = ptrtoint ptr %7 to i64
  %30 = ptrtoint ptr %1 to i64
  %.not = icmp sge i64 %.0.i, %6
  %brmerge = or i1 %.not, %26
  %.mux = select i1 %.not, i32 -1094995529, i32 0
  br i1 %brmerge, label %.loopexit, label %.lr.ph.preheader

.lr.ph.preheader:                                 ; preds = %28
  %31 = getelementptr inbounds nuw i8, ptr %1, i64 %.0.i
  br label %.lr.ph

.lr.ph:                                           ; preds = %.lr.ph.preheader, %93
  %.in = phi i32 [ %32, %93 ], [ %.0.i54, %.lr.ph.preheader ]
  %.04363 = phi ptr [ %.1, %93 ], [ %31, %.lr.ph.preheader ]
  %.04462 = phi i32 [ %.145, %93 ], [ 0, %.lr.ph.preheader ]
  %.04661 = phi i32 [ %94, %93 ], [ 65536, %.lr.ph.preheader ]
  %32 = add i32 %.in, -1
  %33 = load ptr, ptr %8, align 8, !tbaa !41
  %34 = load ptr, ptr %0, align 8, !tbaa !38
  %35 = ptrtoint ptr %33 to i64
  %36 = ptrtoint ptr %34 to i64
  %37 = sub i64 %35, %36
  %38 = trunc i64 %37 to i32
  %39 = icmp slt i32 %38, 2
  br i1 %39, label %.loopexit, label %40

40:                                               ; preds = %.lr.ph
  %41 = icmp eq i32 %.04661, 65536
  br i1 %41, label %42, label %46

42:                                               ; preds = %40
  %43 = getelementptr inbounds nuw i8, ptr %34, i64 2
  store ptr %43, ptr %0, align 8, !tbaa !42
  %44 = load i16, ptr %34, align 1, !tbaa !34
  %45 = zext i16 %44 to i32
  br label %46

46:                                               ; preds = %42, %40
  %47 = phi ptr [ %43, %42 ], [ %34, %40 ]
  %.147 = phi i32 [ 1, %42 ], [ %.04661, %40 ]
  %.145 = phi i32 [ %45, %42 ], [ %.04462, %40 ]
  %48 = ptrtoint ptr %.04363 to i64
  %49 = sub i64 %29, %48
  %50 = icmp slt i64 %49, 2
  br i1 %50, label %.loopexit, label %51

51:                                               ; preds = %46
  %52 = and i32 %.145, %.147
  %.not52 = icmp eq i32 %52, 0
  %53 = ptrtoint ptr %47 to i64
  %54 = sub i64 %35, %53
  br i1 %.not52, label %75, label %55

55:                                               ; preds = %51
  %56 = icmp slt i64 %54, 2
  br i1 %56, label %57, label %58

57:                                               ; preds = %55
  store ptr %33, ptr %0, align 8, !tbaa !38
  br label %bytestream2_get_le16.exit

58:                                               ; preds = %55
  %59 = getelementptr inbounds nuw i8, ptr %47, i64 2
  store ptr %59, ptr %0, align 8, !tbaa !42
  %60 = load i16, ptr %47, align 1, !tbaa !34
  %61 = zext i16 %60 to i32
  br label %bytestream2_get_le16.exit

bytestream2_get_le16.exit:                        ; preds = %57, %58
  %.0.i56 = phi i32 [ 0, %57 ], [ %61, %58 ]
  %62 = shl nuw nsw i32 %.0.i56, 1
  %63 = and i32 %62, 16382
  %64 = lshr i32 %.0.i56, 12
  %65 = and i32 %64, 14
  %66 = add nuw nsw i32 %65, 4
  %67 = sub i64 %48, %30
  %68 = zext nneg i32 %63 to i64
  %69 = icmp slt i64 %67, %68
  br i1 %69, label %.loopexit, label %70

70:                                               ; preds = %bytestream2_get_le16.exit
  %71 = zext nneg i32 %66 to i64
  %72 = icmp samesign ult i64 %49, %71
  br i1 %72, label %.loopexit, label %73

73:                                               ; preds = %70
  tail call void @av_memcpy_backptr(ptr noundef %.04363, i32 noundef %63, i32 noundef %66) #12
  %74 = getelementptr inbounds nuw i8, ptr %.04363, i64 %71
  br label %93

75:                                               ; preds = %51
  %76 = icmp slt i64 %54, 1
  br i1 %76, label %77, label %78

77:                                               ; preds = %75
  store ptr %33, ptr %0, align 8, !tbaa !38
  br label %bytestream2_get_byte.exit

78:                                               ; preds = %75
  %79 = getelementptr inbounds nuw i8, ptr %47, i64 1
  store ptr %79, ptr %0, align 8, !tbaa !42
  %80 = load i8, ptr %47, align 1, !tbaa !34
  br label %bytestream2_get_byte.exit

bytestream2_get_byte.exit:                        ; preds = %77, %78
  %.0.i57 = phi i8 [ 0, %77 ], [ %80, %78 ]
  %81 = getelementptr inbounds nuw i8, ptr %.04363, i64 1
  store i8 %.0.i57, ptr %.04363, align 1, !tbaa !34
  %82 = load ptr, ptr %8, align 8, !tbaa !41
  %83 = load ptr, ptr %0, align 8, !tbaa !38
  %84 = ptrtoint ptr %82 to i64
  %85 = ptrtoint ptr %83 to i64
  %86 = sub i64 %84, %85
  %87 = icmp slt i64 %86, 1
  br i1 %87, label %88, label %89

88:                                               ; preds = %bytestream2_get_byte.exit
  store ptr %82, ptr %0, align 8, !tbaa !38
  br label %bytestream2_get_byte.exit59

89:                                               ; preds = %bytestream2_get_byte.exit
  %90 = getelementptr inbounds nuw i8, ptr %83, i64 1
  store ptr %90, ptr %0, align 8, !tbaa !42
  %91 = load i8, ptr %83, align 1, !tbaa !34
  br label %bytestream2_get_byte.exit59

bytestream2_get_byte.exit59:                      ; preds = %88, %89
  %.0.i58 = phi i8 [ 0, %88 ], [ %91, %89 ]
  %92 = getelementptr inbounds nuw i8, ptr %.04363, i64 2
  store i8 %.0.i58, ptr %81, align 1, !tbaa !34
  br label %93

93:                                               ; preds = %bytestream2_get_byte.exit59, %73
  %.1 = phi ptr [ %74, %73 ], [ %92, %bytestream2_get_byte.exit59 ]
  %94 = shl i32 %.147, 1
  %.not51 = icmp eq i32 %32, 0
  br i1 %.not51, label %.loopexit, label %.lr.ph, !llvm.loop !51

.loopexit:                                        ; preds = %.lr.ph, %46, %70, %bytestream2_get_le16.exit, %93, %28, %bytestream2_get_le32.exit
  %.042 = phi i32 [ 0, %bytestream2_get_le32.exit ], [ %.mux, %28 ], [ -1094995529, %.lr.ph ], [ -1094995529, %46 ], [ -1094995529, %70 ], [ -1094995529, %bytestream2_get_le16.exit ], [ 0, %93 ]
  ret i32 %.042
}